((dp0
S'11'
p1
I1307
sS'10'
p2
I6678
sS'13'
p3
I5044
sS'12'
p4
I1008
sS'15'
p5
I542
sS'14'
p6
I1627
sS'16'
p7
I375
sS'1'
p8
I45
sS'3'
p9
I288
sS'2'
p10
I151
sS'5'
p11
I455
sS'4'
p12
I557
sS'7'
p13
I1048
sS'6'
p14
I820
sS'9'
p15
I9840
sS'8'
p16
I377
s(lp17
g8
ag10
ag9
ag12
ag11
ag14
ag13
ag16
ag15
ag2
ag1
ag4
ag3
ag6
ag5
ag7
atp18
.