((dp0
S'30'
p1
I813
sS'81'
p2
I13
sS'42'
p3
I741
sS'29'
p4
I774
sS'60'
p5
I276
sS'61'
p6
I259
sS'62'
p7
I213
sS'36'
p8
I852
sS'64'
p9
I173
sS'35'
p10
I828
sS'66'
p11
I110
sS'67'
p12
I111
sS'68'
p13
I90
sS'69'
p14
I80
sS'80'
p15
I16
sS'52'
p16
I455
sS'86'
p17
I1
sS'84'
p18
I8
sS'85'
p19
I3
sS'24'
p20
I752
sS'25'
p21
I799
sS'26'
p22
I745
sS'27'
p23
I789
sS'20'
p24
I629
sS'21'
p25
I621
sS'22'
p26
I674
sS'23'
p27
I824
sS'46'
p28
I711
sS'47'
p29
I683
sS'44'
p30
I704
sS'45'
p31
I706
sS'28'
p32
I808
sS'43'
p33
I743
sS'40'
p34
I765
sS'41'
p35
I769
sS'82'
p36
I7
sS'78'
p37
I14
sS'18'
p38
I447
sS'56'
p39
I343
sS'83'
p40
I5
sS'77'
p41
I20
sS'76'
p42
I29
sS'75'
p43
I34
sS'74'
p44
I38
sS'73'
p45
I49
sS'72'
p46
I40
sS'71'
p47
I54
sS'70'
p48
I64
sS'90'
p49
I35
sS'79'
p50
I15
sS'58'
p51
I344
sS'51'
p52
I571
sS'39'
p53
I786
sS'38'
p54
I791
sS'59'
p55
I332
sS'48'
p56
I523
sS'17'
p57
I328
sS'55'
p58
I386
sS'19'
p59
I594
sS'32'
p60
I789
sS'31'
p61
I851
sS'49'
p62
I555
sS'37'
p63
I828
sS'50'
p64
I575
sS'53'
p65
I448
sS'34'
p66
I836
sS'33'
p67
I837
sS'63'
p68
I186
sS'88'
p69
I3
sS'54'
p70
I394
sS'57'
p71
I337
sS'65'
p72
I136
s(lp73
g57
ag38
ag59
ag24
ag25
ag26
ag27
ag20
ag21
ag22
ag23
ag32
ag4
ag1
ag61
ag60
ag67
ag66
ag10
ag8
ag63
ag54
ag53
ag34
ag35
ag3
ag33
ag30
ag31
ag28
ag29
ag56
ag62
ag64
ag52
ag16
ag65
ag70
ag58
ag39
ag71
ag51
ag55
ag5
ag6
ag7
ag68
ag9
ag72
ag11
ag12
ag13
ag14
ag48
ag47
ag46
ag45
ag44
ag43
ag42
ag41
ag37
ag50
ag15
ag2
ag36
ag40
ag18
ag19
ag17
ag69
ag49
atp74
.